; Function Attrs: nounwind uwtable
define dso_local void @mp_encode_lua_null(ptr noundef %0, ptr noundef captures(none) %1) local_unnamed_addr #2 {
  %3 = alloca ptr, align 8
  %4 = getelementptr inbounds nuw i8, ptr %1, i64 16
  %5 = load i64, ptr %4, align 8, !tbaa !11
  %6 = icmp eq i64 %5, 0
  br i1 %6, label %7, label %._crit_edge.i

._crit_edge.i:                                    ; preds = %2
  %.pre.i = load ptr, ptr %1, align 8, !tbaa !15
  %.phi.trans.insert.i = getelementptr inbounds nuw i8, ptr %1, i64 8
  %.pre28.i = load i64, ptr %.phi.trans.insert.i, align 8, !tbaa !16
  br label %mp_buf_append.exit

7:                                                ; preds = %2
  %8 = getelementptr inbounds nuw i8, ptr %1, i64 8
  %9 = load i64, ptr %8, align 8, !tbaa !16
  %or.cond.i = icmp ugt i64 %9, 9223372036854775805
  br i1 %or.cond.i, label %10, label %11

10:                                               ; preds = %7
  tail call void @abort() #11
  unreachable

11:                                               ; preds = %7
  %12 = shl nuw i64 %9, 1
  %13 = add nuw i64 %12, 2
  %14 = load ptr, ptr %1, align 8, !tbaa !15
  call void @llvm.lifetime.start.p0(i64 8, ptr nonnull %3) #10
  %15 = call ptr @lua_getallocf(ptr noundef %0, ptr noundef nonnull %3) #10
  %16 = load ptr, ptr %3, align 8, !tbaa !9
  %17 = call ptr %15(ptr noundef %16, ptr noundef %14, i64 noundef %9, i64 noundef %13) #10
  call void @llvm.lifetime.end.p0(i64 8, ptr nonnull %3) #10
  store ptr %17, ptr %1, align 8, !tbaa !15
  %18 = load i64, ptr %8, align 8, !tbaa !16
  %19 = sub i64 %13, %18
  store i64 %19, ptr %4, align 8, !tbaa !11
  br label %mp_buf_append.exit

mp_buf_append.exit:                               ; preds = %._crit_edge.i, %11
  %20 = phi i64 [ %.pre28.i, %._crit_edge.i ], [ %18, %11 ]
  %21 = phi ptr [ %.pre.i, %._crit_edge.i ], [ %17, %11 ]
  %22 = getelementptr inbounds nuw i8, ptr %1, i64 8
  %23 = getelementptr inbounds nuw i8, ptr %21, i64 %20
  store i8 -64, ptr %23, align 1
  %24 = load i64, ptr %22, align 8, !tbaa !16
  %25 = add i64 %24, 1
  store i64 %25, ptr %22, align 8, !tbaa !16
  %26 = load i64, ptr %4, align 8, !tbaa !11
  %27 = add i64 %26, -1
  store i64 %27, ptr %4, align 8, !tbaa !11
  ret void
}